; ModuleID = 'source-C-CXX/27/403.c'
source_filename = "source-C-CXX/27/403.c"
target datalayout = "e-m:e-p270:32:32-p271:32:32-p272:64:64-i64:64-f80:128-n8:16:32:64-S128"
target triple = "x86_64-pc-linux-gnu"

@.str = private unnamed_addr constant [4 x i8] c"%d,\00", align 1
@.str.1 = private unnamed_addr constant [3 x i8] c"%d\00", align 1

; Function Attrs: nounwind sspstrong uwtable
define dso_local void @main() local_unnamed_addr #0 {
  %1 = alloca [1000 x i8], align 16
  %2 = getelementptr inbounds [1000 x i8], [1000 x i8]* %1, i64 0, i64 0
  call void @llvm.lifetime.start.p0i8(i64 1000, i8* nonnull %2) #5
  %3 = call i32 (i8*, ...) bitcast (i32 (...)* @gets to i32 (i8*, ...)*)(i8* nonnull %2) #5
  %4 = call i64 @strlen(i8* noundef nonnull %2) #6
  %5 = trunc i64 %4 to i32
  %6 = icmp slt i32 %5, 0
  br i1 %6, label %33, label %7

7:                                                ; preds = %0
  %8 = and i64 %4, 4294967295
  %9 = getelementptr [1000 x i8], [1000 x i8]* %1, i64 0, i64 %8
  br label %10

10:                                               ; preds = %7, %30
  %11 = phi i8* [ %31, %30 ], [ %2, %7 ]
  %12 = phi i32 [ %25, %30 ], [ 0, %7 ]
  %13 = load i8, i8* %11, align 1, !tbaa !5
  %14 = icmp eq i8 %13, 32
  %15 = xor i1 %14, true
  %16 = zext i1 %15 to i32
  %17 = add nsw i32 %12, %16
  %18 = icmp ne i32 %17, 0
  %19 = select i1 %14, i1 %18, i1 false
  br i1 %19, label %20, label %23

20:                                               ; preds = %10
  %21 = call i32 (i8*, ...) @printf(i8* nonnull dereferenceable(1) getelementptr inbounds ([4 x i8], [4 x i8]* @.str, i64 0, i64 0), i32 %17)
  %22 = load i8, i8* %11, align 1, !tbaa !5
  br label %23

23:                                               ; preds = %20, %10
  %24 = phi i8 [ %22, %20 ], [ %13, %10 ]
  %25 = phi i32 [ 0, %20 ], [ %17, %10 ]
  %26 = icmp eq i8 %24, 0
  br i1 %26, label %27, label %30

27:                                               ; preds = %23
  %28 = add nsw i32 %25, -1
  %29 = call i32 (i8*, ...) @printf(i8* nonnull dereferenceable(1) getelementptr inbounds ([3 x i8], [3 x i8]* @.str.1, i64 0, i64 0), i32 %28)
  br label %30

30:                                               ; preds = %23, %27
  %31 = getelementptr inbounds i8, i8* %11, i64 1
  %32 = icmp eq i8* %11, %9
  br i1 %32, label %33, label %10, !llvm.loop !8

33:                                               ; preds = %30, %0
  call void @llvm.lifetime.end.p0i8(i64 1000, i8* nonnull %2) #5
  ret void
}

; Function Attrs: argmemonly mustprogress nofree nosync nounwind willreturn
declare void @llvm.lifetime.start.p0i8(i64 immarg, i8* nocapture) #1

declare i32 @gets(...) local_unnamed_addr #2

; Function Attrs: argmemonly mustprogress nofree nounwind readonly willreturn
declare i64 @strlen(i8* nocapture) local_unnamed_addr #3

; Function Attrs: nofree nounwind
declare noundef i32 @printf(i8* nocapture noundef readonly, ...) local_unnamed_addr #4

; Function Attrs: argmemonly mustprogress nofree nosync nounwind willreturn
declare void @llvm.lifetime.end.p0i8(i64 immarg, i8* nocapture) #1


!llvm.module.flags = !{!0, !1, !2, !3}
!llvm.ident = !{!4}

!0 = !{i32 1, !"wchar_size", i32 4}
!1 = !{i32 7, !"PIC Level", i32 2}
!2 = !{i32 7, !"PIE Level", i32 2}
!3 = !{i32 7, !"uwtable", i32 1}
!4 = !{!"clang version 13.0.0"}
!5 = !{!6, !6, i64 0}
!6 = !{!"omnipotent char", !7, i64 0}
!7 = !{!"Simple C/C++ TBAA"}
!8 = distinct !{!8, !9}
!9 = !{!"llvm.loop.mustprogress"}
